Certificate:
    Data:
        Version: 3 (0x2)
        Serial Number: 3 (0x3)
        Signature Algorithm: sha256WithRSAEncryption
        Issuer: CN=ScandiPWA Certificate Authority, ST=LV, C=LV/emailAddress=developer@local.scandipwa, O=WorksOnMyLocal, OU=Development
        Validity
            Not Before: Jan  4 20:57:08 2020 GMT
            Not After : Jan  1 20:57:08 2030 GMT
        Subject: CN=local.magento2.com, ST=LV, C=LV/emailAddress=developer@local.scandipwa, O=WorksOnMyLocal, OU=Development
        Subject Public Key Info:
            Public Key Algorithm: rsaEncryption
                RSA Public-Key: (2048 bit)
                Modulus:
                    00:c9:6a:d5:1d:e1:03:21:c5:67:9c:a7:18:fd:1e:
                    1a:93:4a:30:32:dd:3c:e6:1d:b8:e3:13:2a:f4:46:
                    fe:b9:31:d9:eb:3e:9d:f8:bf:34:36:75:79:96:bb:
                    f7:c8:fe:89:5a:f7:32:bb:22:0f:84:7d:04:9c:11:
                    38:e1:30:44:05:28:13:21:b4:29:bc:cb:90:b2:06:
                    19:1c:d0:7a:a5:e1:af:d0:0f:ef:cb:5f:5a:78:fc:
                    3d:7c:30:35:5d:1c:8a:c9:da:0e:f2:99:73:1c:28:
                    74:79:ec:06:aa:65:25:2c:cb:3b:86:d9:22:24:4b:
                    04:7b:62:1e:b7:92:67:fa:48:f8:b9:f3:7e:ce:35:
                    3d:56:67:15:47:4b:ac:f5:8f:40:24:23:ad:4c:71:
                    79:9d:0f:48:aa:6e:89:af:4d:ea:c7:50:c1:f1:31:
                    3e:de:c5:e7:ae:52:b5:54:3d:23:8a:e8:f0:c4:89:
                    63:eb:05:40:19:cd:ba:08:cc:82:1f:d5:f0:79:21:
                    20:1e:3b:8f:6c:73:9f:30:35:57:02:60:fa:1e:61:
                    c7:2a:cb:a5:fb:19:b1:b1:64:00:bb:3b:5f:a4:15:
                    b9:23:36:34:d6:0e:04:f3:bc:d5:2c:11:a8:36:a6:
                    cd:74:76:b4:ed:39:af:62:f2:9f:30:10:bb:9c:08:
                    12:9b
                Exponent: 65537 (0x10001)
        X509v3 extensions:
            X509v3 Basic Constraints: 
                CA:FALSE
            X509v3 Key Usage: 
                Digital Signature, Non Repudiation, Key Encipherment
            X509v3 Subject Alternative Name: 
                DNS:local.magento2.com, DNS:scandipwa.local, DNS:localhost, DNS:local.magento2.com, DNS:scandipwa.dev, IP Address:127.0.0.1
    Signature Algorithm: sha256WithRSAEncryption
         86:5d:5d:d7:76:a2:37:35:9b:3a:12:80:7e:68:35:e1:36:b4:
         9c:87:94:b4:22:1f:4b:af:76:97:34:ee:88:4d:2d:10:c7:03:
         13:4d:42:64:82:92:ae:ef:a4:86:55:a0:b1:10:4c:c5:ff:fa:
         a0:82:a3:8c:95:a8:21:fb:c2:36:3d:bf:9a:65:1e:db:65:38:
         61:1f:36:c1:3a:01:0a:d0:88:f1:7f:aa:49:6a:6b:2b:68:c4:
         d2:b9:1e:f6:93:ff:a6:6a:69:24:78:e5:03:f7:3f:82:7d:ce:
         43:07:c9:fe:b0:ac:2b:e9:d1:70:52:ea:35:4a:53:b2:e5:b1:
         b2:a3:29:76:82:06:cb:87:2c:66:5d:fa:fa:d3:f4:4a:4a:f2:
         6b:95:5d:9c:e5:a3:c8:34:ae:4e:76:6b:c0:c9:4a:fd:ac:da:
         01:07:bb:f6:fc:e4:6e:95:c6:d5:cd:aa:28:25:ae:42:c6:67:
         ad:22:37:b1:e8:07:6f:8c:c2:97:1d:65:32:55:40:10:19:75:
         19:cc:ac:19:ff:42:97:a5:22:22:26:44:7b:5d:a4:f3:a1:20:
         22:20:05:14:82:ec:2a:32:32:08:88:1a:e7:11:fb:a1:51:c1:
         37:30:58:9e:51:31:7a:51:99:01:8e:ad:9a:71:7c:98:4a:37:
         d1:1f:c6:23
-----BEGIN CERTIFICATE-----
MIIEKDCCAxCgAwIBAgIBAzANBgkqhkiG9w0BAQsFADCBnTEoMCYGA1UEAwwfU2Nh
bmRpUFdBIENlcnRpZmljYXRlIEF1dGhvcml0eTELMAkGA1UECAwCTFYxCzAJBgNV
BAYTAkxWMSgwJgYJKoZIhvcNAQkBFhlkZXZlbG9wZXJAbG9jYWwuc2NhbmRpcHdh
MRcwFQYDVQQKDA5Xb3Jrc09uTXlMb2NhbDEUMBIGA1UECwwLRGV2ZWxvcG1lbnQw
HhcNMjAwMTA0MjA1NzA4WhcNMzAwMTAxMjA1NzA4WjCBkDEbMBkGA1UEAwwSbG9j
YWwubWFnZW50bzIuY29tMQswCQYDVQQIDAJMVjELMAkGA1UEBhMCTFYxKDAmBgkq
hkiG9w0BCQEWGWRldmVsb3BlckBsb2NhbC5zY2FuZGlwd2ExFzAVBgNVBAoMDldv
cmtzT25NeUxvY2FsMRQwEgYDVQQLDAtEZXZlbG9wbWVudDCCASIwDQYJKoZIhvcN
AQEBBQADggEPADCCAQoCggEBAMlq1R3hAyHFZ5ynGP0eGpNKMDLdPOYduOMTKvRG
/rkx2es+nfi/NDZ1eZa798j+iVr3MrsiD4R9BJwROOEwRAUoEyG0KbzLkLIGGRzQ
eqXhr9AP78tfWnj8PXwwNV0cisnaDvKZcxwodHnsBqplJSzLO4bZIiRLBHtiHreS
Z/pI+Lnzfs41PVZnFUdLrPWPQCQjrUxxeZ0PSKpuia9N6sdQwfExPt7F565StVQ9
I4ro8MSJY+sFQBnNugjMgh/V8HkhIB47j2xznzA1VwJg+h5hxyrLpfsZsbFkALs7
X6QVuSM2NNYOBPO81SwRqDamzXR2tO05r2LynzAQu5wIEpsCAwEAAaN+MHwwCQYD
VR0TBAIwADALBgNVHQ8EBAMCBeAwYgYDVR0RBFswWYISbG9jYWwubWFnZW50bzIu
Y29tgg9zY2FuZGlwd2EubG9jYWyCCWxvY2FsaG9zdIISbG9jYWwubWFnZW50bzIu
Y29tgg1zY2FuZGlwd2EuZGV2hwR/AAABMA0GCSqGSIb3DQEBCwUAA4IBAQCGXV3X
dqI3NZs6EoB+aDXhNrSch5S0Ih9Lr3aXNO6ITS0QxwMTTUJkgpKu76SGVaCxEEzF
//qggqOMlagh+8I2Pb+aZR7bZThhHzbBOgEK0Ijxf6pJamsraMTSuR72k/+mamkk
eOUD9z+Cfc5DB8n+sKwr6dFwUuo1SlOy5bGyoyl2ggbLhyxmXfr60/RKSvJrlV2c
5aPINK5OdmvAyUr9rNoBB7v2/ORulcbVzaooJa5CxmetIjex6AdvjMKXHWUyVUAQ
GXUZzKwZ/0KXpSIiJkR7XaTzoSAiIAUUguwqMjIIiBrnEfuhUcE3MFieUTF6UZkB
jq2acXyYSjfRH8Yj
-----END CERTIFICATE-----
-----BEGIN CERTIFICATE-----
MIID2jCCAsKgAwIBAgIUFsp0UL0R11zjg1rP3Y+mWr/gNpkwDQYJKoZIhvcNAQEL
BQAwgZ0xKDAmBgNVBAMMH1NjYW5kaVBXQSBDZXJ0aWZpY2F0ZSBBdXRob3JpdHkx
CzAJBgNVBAgMAkxWMQswCQYDVQQGEwJMVjEoMCYGCSqGSIb3DQEJARYZZGV2ZWxv
cGVyQGxvY2FsLnNjYW5kaXB3YTEXMBUGA1UECgwOV29ya3NPbk15TG9jYWwxFDAS
BgNVBAsMC0RldmVsb3BtZW50MB4XDTIwMDEwMzA5MzYyN1oXDTI1MDEwMTA5MzYy
N1owgZ0xKDAmBgNVBAMMH1NjYW5kaVBXQSBDZXJ0aWZpY2F0ZSBBdXRob3JpdHkx
CzAJBgNVBAgMAkxWMQswCQYDVQQGEwJMVjEoMCYGCSqGSIb3DQEJARYZZGV2ZWxv
cGVyQGxvY2FsLnNjYW5kaXB3YTEXMBUGA1UECgwOV29ya3NPbk15TG9jYWwxFDAS
BgNVBAsMC0RldmVsb3BtZW50MIIBIjANBgkqhkiG9w0BAQEFAAOCAQ8AMIIBCgKC
AQEA1Qe1SBh+ZPkUllU0/G5h+E5f8TAzLdyFl+Jg3wgix1tV0CHQ4kuz8vZwkoL8
KGVI1rhO8TxzivLHKEV1kD0y7GhEdXugLynztvyNG1QFmCmQFuoSBcwhBGRQIet8
Hw2alRJ6LL27q0Igmhak0Nau9Tvgfl1mYEK15YgrGNZyORSw65K7rMvqXyMkOEYx
GF8I0x7+7IPdIN0Bam7rMRrCSVtxE6FydBU5FLP8NpXB94CExoiwCJeKxrhPInVI
v71xeBiYzehl5+qJhouhZYlIBrzESmkCKSHzSd8lMlsLwTL3B0N1H5l6fu4PfOdT
mqKvf118w2cjv+g3HDvM/enhYwIDAQABoxAwDjAMBgNVHRMEBTADAQH/MA0GCSqG
SIb3DQEBCwUAA4IBAQAS2loAzmux2hqN3uiLD26n09AVcuPECCzk4JE5u5m1tH4l
lgHM0V9QzbAmbyajdgINjZRV/oYiQUmLU7Ev7TU67bE2c4Pf0NIzyJwOAG2FvC5P
9PvYE3rtkn9TluwnujdZ+/QaopMDN9hXllb0qBFP+gW9qoQU/eFBvHb2cPZXsZD0
h9O2FAFpu9z6Op75o6PYZkyu/WFYd/G5QSMfrDKMzeFC2bUfi12i3qAeS1Ns2qnV
9s0UpTpzXeqxEFwDQr6JMTFTpTeT3J3lItHG2jzs35Cp/oLzEF/EXpfY6ic/qOAY
zJT/BMP965fpr9cDOtuVLgwRj4lyfAsZ0hB35Fib
-----END CERTIFICATE-----
